target datalayout = "e-m:e-p270:32:32-p271:32:32-p272:64:64-i64:64-i128:128-f80:128-n8:16:32:64-S128"
target triple = "x86_64-pc-linux-gnu"

%struct.strbuf = type { i64, i64, ptr }
%struct.hostinfo = type { %struct.strbuf, %struct.strbuf, %struct.strbuf, %struct.strbuf, i8 }
%struct.addrinfo = type { i32, i32, i32, i32, i32, ptr, ptr, ptr }
%struct.sockaddr_in = type { i16, i16, %struct.in_addr, [8 x i8] }
%struct.in_addr = type { i32 }

@lookup_hostname.addrbuf = internal global [65 x i8] zeroinitializer, align 16

; Function Attrs: inlinehint nounwind uwtable
define internal void @strbuf_addstr(ptr noundef %0, ptr noundef %1) #3 {
  %3 = alloca ptr, align 8
  %4 = alloca ptr, align 8
  store ptr %0, ptr %3, align 8, !tbaa !65
  store ptr %1, ptr %4, align 8, !tbaa !11
  %5 = load ptr, ptr %3, align 8, !tbaa !65
  %6 = load ptr, ptr %4, align 8, !tbaa !11
  %7 = load ptr, ptr %4, align 8, !tbaa !11
  %8 = call i64 @strlen(ptr noundef %7) #14
  call void @strbuf_add(ptr noundef %5, ptr noundef %6, i64 noundef %8)
  ret void
}

; Function Attrs: nounwind uwtable
define internal void @lookup_hostname(ptr noundef %0) #0 {
  %2 = alloca ptr, align 8
  %3 = alloca %struct.addrinfo, align 8
  %4 = alloca ptr, align 8
  %5 = alloca i32, align 4
  %6 = alloca ptr, align 8
  store ptr %0, ptr %2, align 8, !tbaa !69
  %7 = load ptr, ptr %2, align 8, !tbaa !69
  %8 = getelementptr inbounds nuw %struct.hostinfo, ptr %7, i32 0, i32 4
  %9 = load i8, ptr %8, align 8
  %10 = and i8 %9, 1
  %11 = zext i8 %10 to i32
  %12 = icmp ne i32 %11, 0
  br i1 %12, label %60, label %13

13:                                               ; preds = %1
  %14 = load ptr, ptr %2, align 8, !tbaa !69
  %15 = getelementptr inbounds nuw %struct.hostinfo, ptr %14, i32 0, i32 0
  %16 = getelementptr inbounds nuw %struct.strbuf, ptr %15, i32 0, i32 1
  %17 = load i64, ptr %16, align 8, !tbaa !86
  %18 = icmp ne i64 %17, 0
  br i1 %18, label %19, label %60

19:                                               ; preds = %13
  call void @llvm.lifetime.start.p0(i64 48, ptr %3) #13
  call void @llvm.lifetime.start.p0(i64 8, ptr %4) #13
  call void @llvm.lifetime.start.p0(i64 4, ptr %5) #13
  call void @llvm.memset.p0.i64(ptr align 8 %3, i8 0, i64 48, i1 false)
  %20 = getelementptr inbounds nuw %struct.addrinfo, ptr %3, i32 0, i32 0
  store i32 2, ptr %20, align 8, !tbaa !87
  %21 = load ptr, ptr %2, align 8, !tbaa !69
  %22 = getelementptr inbounds nuw %struct.hostinfo, ptr %21, i32 0, i32 0
  %23 = getelementptr inbounds nuw %struct.strbuf, ptr %22, i32 0, i32 2
  %24 = load ptr, ptr %23, align 8, !tbaa !80
  %25 = call i32 @getaddrinfo(ptr noundef %24, ptr noundef null, ptr noundef %3, ptr noundef %4)
  store i32 %25, ptr %5, align 4, !tbaa !4
  %26 = load i32, ptr %5, align 4, !tbaa !4
  %27 = icmp ne i32 %26, 0
  br i1 %27, label %54, label %28

28:                                               ; preds = %19
  call void @llvm.lifetime.start.p0(i64 8, ptr %6) #13
  %29 = load ptr, ptr %4, align 8, !tbaa !91
  %30 = getelementptr inbounds nuw %struct.addrinfo, ptr %29, i32 0, i32 5
  %31 = load ptr, ptr %30, align 8, !tbaa !92
  store ptr %31, ptr %6, align 8, !tbaa !93
  %32 = load ptr, ptr %6, align 8, !tbaa !93
  %33 = getelementptr inbounds nuw %struct.sockaddr_in, ptr %32, i32 0, i32 2
  %34 = call ptr @inet_ntop(i32 noundef 2, ptr noundef %33, ptr noundef @lookup_hostname.addrbuf, i32 noundef 65) #13
  %35 = load ptr, ptr %2, align 8, !tbaa !69
  %36 = getelementptr inbounds nuw %struct.hostinfo, ptr %35, i32 0, i32 2
  call void @strbuf_addstr(ptr noundef %36, ptr noundef @lookup_hostname.addrbuf)
  %37 = load ptr, ptr %4, align 8, !tbaa !91
  %38 = getelementptr inbounds nuw %struct.addrinfo, ptr %37, i32 0, i32 6
  %39 = load ptr, ptr %38, align 8, !tbaa !95
  %40 = icmp ne ptr %39, null
  br i1 %40, label %41, label %47

41:                                               ; preds = %28
  %42 = load ptr, ptr %2, align 8, !tbaa !69
  %43 = getelementptr inbounds nuw %struct.hostinfo, ptr %42, i32 0, i32 1
  %44 = load ptr, ptr %4, align 8, !tbaa !91
  %45 = getelementptr inbounds nuw %struct.addrinfo, ptr %44, i32 0, i32 6
  %46 = load ptr, ptr %45, align 8, !tbaa !95
  call void @sanitize_client(ptr noundef %43, ptr noundef %46)
  br label %52

47:                                               ; preds = %28
  %48 = load ptr, ptr %2, align 8, !tbaa !69
  %49 = getelementptr inbounds nuw %struct.hostinfo, ptr %48, i32 0, i32 1
  %50 = load ptr, ptr %2, align 8, !tbaa !69
  %51 = getelementptr inbounds nuw %struct.hostinfo, ptr %50, i32 0, i32 2
  call void @strbuf_addbuf(ptr noundef %49, ptr noundef %51)
  br label %52

52:                                               ; preds = %47, %41
  %53 = load ptr, ptr %4, align 8, !tbaa !91
  call void @freeaddrinfo(ptr noundef %53) #13
  call void @llvm.lifetime.end.p0(i64 8, ptr %6) #13
  br label %54

54:                                               ; preds = %52, %19
  %55 = load ptr, ptr %2, align 8, !tbaa !69
  %56 = getelementptr inbounds nuw %struct.hostinfo, ptr %55, i32 0, i32 4
  %57 = load i8, ptr %56, align 8
  %58 = and i8 %57, -2
  %59 = or i8 %58, 1
  store i8 %59, ptr %56, align 8
  call void @llvm.lifetime.end.p0(i64 4, ptr %5) #13
  call void @llvm.lifetime.end.p0(i64 8, ptr %4) #13
  call void @llvm.lifetime.end.p0(i64 48, ptr %3) #13
  br label %60

60:                                               ; preds = %54, %13, %1
  ret void
}