; Function Attrs: nounwind uwtable
define internal fastcc void @lookup_hostname(ptr noundef nonnull %0) unnamed_addr #0 {
  %2 = alloca %struct.addrinfo, align 8
  %3 = alloca ptr, align 8
  %4 = getelementptr inbounds nuw i8, ptr %0, i64 96
  %5 = load i8, ptr %4, align 8
  %6 = and i8 %5, 1
  %.not = icmp eq i8 %6, 0
  br i1 %.not, label %7, label %33

7:                                                ; preds = %1
  %8 = getelementptr inbounds nuw i8, ptr %0, i64 8
  %9 = load i64, ptr %8, align 8, !tbaa !94
  %.not9 = icmp eq i64 %9, 0
  br i1 %.not9, label %33, label %10

10:                                               ; preds = %7
  call void @llvm.lifetime.start.p0(i64 48, ptr nonnull %2) #21
  call void @llvm.lifetime.start.p0(i64 8, ptr nonnull %3) #21
  call void @llvm.memset.p0.i64(ptr noundef nonnull align 8 dereferenceable(48) %2, i8 0, i64 48, i1 false)
  store i32 2, ptr %2, align 8, !tbaa !95
  %11 = getelementptr inbounds nuw i8, ptr %0, i64 16
  %12 = load ptr, ptr %11, align 8, !tbaa !41
  %13 = call i32 @getaddrinfo(ptr noundef %12, ptr noundef null, ptr noundef nonnull %2, ptr noundef nonnull %3) #21
  %.not10 = icmp eq i32 %13, 0
  br i1 %.not10, label %14, label %30

14:                                               ; preds = %10
  %15 = load ptr, ptr %3, align 8, !tbaa !99
  %16 = getelementptr inbounds nuw i8, ptr %15, i64 24
  %17 = load ptr, ptr %16, align 8, !tbaa !100
  %18 = getelementptr inbounds nuw i8, ptr %17, i64 4
  %19 = call ptr @inet_ntop(i32 noundef 2, ptr noundef nonnull %18, ptr noundef nonnull @lookup_hostname.addrbuf, i32 noundef 65) #21
  %20 = getelementptr inbounds nuw i8, ptr %0, i64 48
  %21 = call i64 @strlen(ptr noundef nonnull dereferenceable(1) @lookup_hostname.addrbuf) #22
  call void @strbuf_add(ptr noundef nonnull %20, ptr noundef nonnull @lookup_hostname.addrbuf, i64 noundef %21) #21
  %22 = load ptr, ptr %3, align 8, !tbaa !99
  %23 = getelementptr inbounds nuw i8, ptr %22, i64 32
  %24 = load ptr, ptr %23, align 8, !tbaa !101
  %.not11 = icmp eq ptr %24, null
  %25 = getelementptr inbounds nuw i8, ptr %0, i64 24
  br i1 %.not11, label %27, label %26

26:                                               ; preds = %14
  call fastcc void @sanitize_client(ptr noundef %25, ptr noundef nonnull %24)
  br label %28

27:                                               ; preds = %14
  call void @strbuf_addbuf(ptr noundef nonnull %25, ptr noundef nonnull %20) #21
  br label %28

28:                                               ; preds = %27, %26
  %29 = load ptr, ptr %3, align 8, !tbaa !99
  call void @freeaddrinfo(ptr noundef %29) #21
  br label %30

30:                                               ; preds = %28, %10
  %31 = load i8, ptr %4, align 8
  %32 = or i8 %31, 1
  store i8 %32, ptr %4, align 8
  call void @llvm.lifetime.end.p0(i64 8, ptr nonnull %3) #21
  call void @llvm.lifetime.end.p0(i64 48, ptr nonnull %2) #21
  br label %33

33:                                               ; preds = %30, %7, %1
  ret void
}